target datalayout = "e-m:e-p270:32:32-p271:32:32-p272:64:64-i64:64-i128:128-f80:128-n8:16:32:64-S128"
target triple = "x86_64-pc-linux-gnu"

%struct.mbedtls_psa_aead_operation_t = type { i32, i16, i8, i8, %union.anon }
%union.anon = type { %struct.mbedtls_gcm_context }
%struct.mbedtls_gcm_context = type { %struct.mbedtls_cipher_context_t, [16 x [2 x i64]], i64, i64, [16 x i8], [16 x i8], [16 x i8], i8, i8 }
%struct.mbedtls_cipher_context_t = type { ptr, i32, i32, ptr, ptr, [16 x i8], i64, [16 x i8], i64, ptr, ptr }

; Function Attrs: nounwind uwtable
define hidden i32 @mbedtls_psa_aead_abort(ptr noundef %0) #0 {
  %2 = alloca ptr, align 8
  store ptr %0, ptr %2, align 8, !tbaa !20
  %3 = load ptr, ptr %2, align 8, !tbaa !20
  %4 = getelementptr inbounds nuw %struct.mbedtls_psa_aead_operation_t, ptr %3, i32 0, i32 0
  %5 = load i32, ptr %4, align 8, !tbaa !19
  switch i32 %5, label %15 [
    i32 89129216, label %6
    i32 89129472, label %9
    i32 84935936, label %12
  ]

6:                                                ; preds = %1
  %7 = load ptr, ptr %2, align 8, !tbaa !20
  %8 = getelementptr inbounds nuw %struct.mbedtls_psa_aead_operation_t, ptr %7, i32 0, i32 4
  call void @mbedtls_ccm_free(ptr noundef %8)
  br label %15

9:                                                ; preds = %1
  %10 = load ptr, ptr %2, align 8, !tbaa !20
  %11 = getelementptr inbounds nuw %struct.mbedtls_psa_aead_operation_t, ptr %10, i32 0, i32 4
  call void @mbedtls_gcm_free(ptr noundef %11)
  br label %15

12:                                               ; preds = %1
  %13 = load ptr, ptr %2, align 8, !tbaa !20
  %14 = getelementptr inbounds nuw %struct.mbedtls_psa_aead_operation_t, ptr %13, i32 0, i32 4
  call void @mbedtls_chachapoly_free(ptr noundef %14)
  br label %15

15:                                               ; preds = %1, %12, %9, %6
  %16 = load ptr, ptr %2, align 8, !tbaa !20
  %17 = getelementptr inbounds nuw %struct.mbedtls_psa_aead_operation_t, ptr %16, i32 0, i32 2
  %18 = load i8, ptr %17, align 2
  %19 = and i8 %18, -2
  %20 = or i8 %19, 0
  store i8 %20, ptr %17, align 2
  ret i32 0
}

; Function Attrs: nounwind uwtable
define internal i32 @psa_aead_unpadded_locate_tag(i64 noundef %0, ptr noundef %1, i64 noundef %2, i64 noundef %3, ptr noundef %4) #0 {
  %6 = alloca i32, align 4
  %7 = alloca i64, align 8
  %8 = alloca ptr, align 8
  %9 = alloca i64, align 8
  %10 = alloca i64, align 8
  %11 = alloca ptr, align 8
  %12 = alloca i64, align 8
  %13 = alloca i32, align 4
  store i64 %0, ptr %7, align 8, !tbaa !10
  store ptr %1, ptr %8, align 8, !tbaa !8
  store i64 %2, ptr %9, align 8, !tbaa !10
  store i64 %3, ptr %10, align 8, !tbaa !10
  store ptr %4, ptr %11, align 8, !tbaa !26
  call void @llvm.lifetime.start.p0(i64 8, ptr %12) #5
  %14 = load i64, ptr %7, align 8, !tbaa !10
  %15 = load i64, ptr %9, align 8, !tbaa !10
  %16 = icmp ugt i64 %14, %15
  br i1 %16, label %17, label %18

17:                                               ; preds = %5
  store i32 -135, ptr %6, align 4
  store i32 1, ptr %13, align 4
  br label %31

18:                                               ; preds = %5
  %19 = load i64, ptr %9, align 8, !tbaa !10
  %20 = load i64, ptr %7, align 8, !tbaa !10
  %21 = sub i64 %19, %20
  store i64 %21, ptr %12, align 8, !tbaa !10
  %22 = load i64, ptr %12, align 8, !tbaa !10
  %23 = load i64, ptr %10, align 8, !tbaa !10
  %24 = icmp ugt i64 %22, %23
  br i1 %24, label %25, label %26

25:                                               ; preds = %18
  store i32 -138, ptr %6, align 4
  store i32 1, ptr %13, align 4
  br label %31

26:                                               ; preds = %18
  %27 = load ptr, ptr %8, align 8, !tbaa !8
  %28 = load i64, ptr %12, align 8, !tbaa !10
  %29 = getelementptr inbounds nuw i8, ptr %27, i64 %28
  %30 = load ptr, ptr %11, align 8, !tbaa !26
  store ptr %29, ptr %30, align 8, !tbaa !8
  store i32 0, ptr %6, align 4
  store i32 1, ptr %13, align 4
  br label %31

31:                                               ; preds = %26, %25, %17
  call void @llvm.lifetime.end.p0(i64 8, ptr %12) #5
  %32 = load i32, ptr %6, align 4
  ret i32 %32
}

; Function Attrs: nounwind uwtable
define hidden i32 @mbedtls_psa_aead_decrypt(ptr noundef %0, ptr noundef %1, i64 noundef %2, i32 noundef %3, ptr noundef %4, i64 noundef %5, ptr noundef %6, i64 noundef %7, ptr noundef %8, i64 noundef %9, ptr noundef %10, i64 noundef %11, ptr noundef %12) #0 {
  %14 = alloca i32, align 4
  %15 = alloca ptr, align 8
  %16 = alloca ptr, align 8
  %17 = alloca i64, align 8
  %18 = alloca i32, align 4
  %19 = alloca ptr, align 8
  %20 = alloca i64, align 8
  %21 = alloca ptr, align 8
  %22 = alloca i64, align 8
  %23 = alloca ptr, align 8
  %24 = alloca i64, align 8
  %25 = alloca ptr, align 8
  %26 = alloca i64, align 8
  %27 = alloca ptr, align 8
  %28 = alloca i32, align 4
  %29 = alloca %struct.mbedtls_psa_aead_operation_t, align 8
  %30 = alloca ptr, align 8
  %31 = alloca i32, align 4
  store ptr %0, ptr %15, align 8, !tbaa !3
  store ptr %1, ptr %16, align 8, !tbaa !8
  store i64 %2, ptr %17, align 8, !tbaa !10
  store i32 %3, ptr %18, align 4, !tbaa !12
  store ptr %4, ptr %19, align 8, !tbaa !8
  store i64 %5, ptr %20, align 8, !tbaa !10
  store ptr %6, ptr %21, align 8, !tbaa !8
  store i64 %7, ptr %22, align 8, !tbaa !10
  store ptr %8, ptr %23, align 8, !tbaa !8
  store i64 %9, ptr %24, align 8, !tbaa !10
  store ptr %10, ptr %25, align 8, !tbaa !8
  store i64 %11, ptr %26, align 8, !tbaa !10
  store ptr %12, ptr %27, align 8, !tbaa !14
  call void @llvm.lifetime.start.p0(i64 4, ptr %28) #5
  store i32 -151, ptr %28, align 4, !tbaa !12
  call void @llvm.lifetime.start.p0(i64 432, ptr %29) #5
  call void @llvm.memset.p0.i64(ptr align 8 %29, i8 0, i64 432, i1 false)
  call void @llvm.lifetime.start.p0(i64 8, ptr %30) #5
  store ptr null, ptr %30, align 8, !tbaa !8
  %32 = load ptr, ptr %15, align 8, !tbaa !3
  %33 = load ptr, ptr %16, align 8, !tbaa !8
  %34 = load i64, ptr %17, align 8, !tbaa !10
  %35 = load i32, ptr %18, align 4, !tbaa !12
  %36 = call i32 @psa_aead_setup(ptr noundef %29, ptr noundef %32, ptr noundef %33, i64 noundef %34, i32 noundef %35)
  store i32 %36, ptr %28, align 4, !tbaa !12
  %37 = load i32, ptr %28, align 4, !tbaa !12
  %38 = icmp ne i32 %37, 0
  br i1 %38, label %39, label %40

39:                                               ; preds = %13
  br label %136

40:                                               ; preds = %13
  %41 = getelementptr inbounds nuw %struct.mbedtls_psa_aead_operation_t, ptr %29, i32 0, i32 3
  %42 = load i8, ptr %41, align 1, !tbaa !16
  %43 = zext i8 %42 to i64
  %44 = load ptr, ptr %23, align 8, !tbaa !8
  %45 = load i64, ptr %24, align 8, !tbaa !10
  %46 = load i64, ptr %26, align 8, !tbaa !10
  %47 = call i32 @psa_aead_unpadded_locate_tag(i64 noundef %43, ptr noundef %44, i64 noundef %45, i64 noundef %46, ptr noundef %30)
  store i32 %47, ptr %28, align 4, !tbaa !12
  %48 = load i32, ptr %28, align 4, !tbaa !12
  %49 = icmp ne i32 %48, 0
  br i1 %49, label %50, label %51

50:                                               ; preds = %40
  br label %136

51:                                               ; preds = %40
  %52 = getelementptr inbounds nuw %struct.mbedtls_psa_aead_operation_t, ptr %29, i32 0, i32 0
  %53 = load i32, ptr %52, align 8, !tbaa !19
  %54 = icmp eq i32 %53, 89129216
  br i1 %54, label %55, label %74

55:                                               ; preds = %51
  %56 = getelementptr inbounds nuw %struct.mbedtls_psa_aead_operation_t, ptr %29, i32 0, i32 4
  %57 = load i64, ptr %24, align 8, !tbaa !10
  %58 = getelementptr inbounds nuw %struct.mbedtls_psa_aead_operation_t, ptr %29, i32 0, i32 3
  %59 = load i8, ptr %58, align 1, !tbaa !16
  %60 = zext i8 %59 to i64
  %61 = sub i64 %57, %60
  %62 = load ptr, ptr %19, align 8, !tbaa !8
  %63 = load i64, ptr %20, align 8, !tbaa !10
  %64 = load ptr, ptr %21, align 8, !tbaa !8
  %65 = load i64, ptr %22, align 8, !tbaa !10
  %66 = load ptr, ptr %23, align 8, !tbaa !8
  %67 = load ptr, ptr %25, align 8, !tbaa !8
  %68 = load ptr, ptr %30, align 8, !tbaa !8
  %69 = getelementptr inbounds nuw %struct.mbedtls_psa_aead_operation_t, ptr %29, i32 0, i32 3
  %70 = load i8, ptr %69, align 1, !tbaa !16
  %71 = zext i8 %70 to i64
  %72 = call i32 @mbedtls_ccm_auth_decrypt(ptr noundef %56, i64 noundef %61, ptr noundef %62, i64 noundef %63, ptr noundef %64, i64 noundef %65, ptr noundef %66, ptr noundef %67, ptr noundef %68, i64 noundef %71)
  %73 = call i32 @mbedtls_to_psa_error(i32 noundef %72)
  store i32 %73, ptr %28, align 4, !tbaa !12
  br label %125

74:                                               ; preds = %51
  %75 = getelementptr inbounds nuw %struct.mbedtls_psa_aead_operation_t, ptr %29, i32 0, i32 0
  %76 = load i32, ptr %75, align 8, !tbaa !19
  %77 = icmp eq i32 %76, 89129472
  br i1 %77, label %78, label %97

78:                                               ; preds = %74
  %79 = getelementptr inbounds nuw %struct.mbedtls_psa_aead_operation_t, ptr %29, i32 0, i32 4
  %80 = load i64, ptr %24, align 8, !tbaa !10
  %81 = getelementptr inbounds nuw %struct.mbedtls_psa_aead_operation_t, ptr %29, i32 0, i32 3
  %82 = load i8, ptr %81, align 1, !tbaa !16
  %83 = zext i8 %82 to i64
  %84 = sub i64 %80, %83
  %85 = load ptr, ptr %19, align 8, !tbaa !8
  %86 = load i64, ptr %20, align 8, !tbaa !10
  %87 = load ptr, ptr %21, align 8, !tbaa !8
  %88 = load i64, ptr %22, align 8, !tbaa !10
  %89 = load ptr, ptr %30, align 8, !tbaa !8
  %90 = getelementptr inbounds nuw %struct.mbedtls_psa_aead_operation_t, ptr %29, i32 0, i32 3
  %91 = load i8, ptr %90, align 1, !tbaa !16
  %92 = zext i8 %91 to i64
  %93 = load ptr, ptr %23, align 8, !tbaa !8
  %94 = load ptr, ptr %25, align 8, !tbaa !8
  %95 = call i32 @mbedtls_gcm_auth_decrypt(ptr noundef %79, i64 noundef %84, ptr noundef %85, i64 noundef %86, ptr noundef %87, i64 noundef %88, ptr noundef %89, i64 noundef %92, ptr noundef %93, ptr noundef %94)
  %96 = call i32 @mbedtls_to_psa_error(i32 noundef %95)
  store i32 %96, ptr %28, align 4, !tbaa !12
  br label %124

97:                                               ; preds = %74
  %98 = getelementptr inbounds nuw %struct.mbedtls_psa_aead_operation_t, ptr %29, i32 0, i32 0
  %99 = load i32, ptr %98, align 8, !tbaa !19
  %100 = icmp eq i32 %99, 84935936
  br i1 %100, label %101, label %122

101:                                              ; preds = %97
  %102 = getelementptr inbounds nuw %struct.mbedtls_psa_aead_operation_t, ptr %29, i32 0, i32 3
  %103 = load i8, ptr %102, align 1, !tbaa !16
  %104 = zext i8 %103 to i32
  %105 = icmp ne i32 %104, 16
  br i1 %105, label %106, label %107

106:                                              ; preds = %101
  store i32 -134, ptr %28, align 4, !tbaa !12
  br label %136

107:                                              ; preds = %101
  %108 = getelementptr inbounds nuw %struct.mbedtls_psa_aead_operation_t, ptr %29, i32 0, i32 4
  %109 = load i64, ptr %24, align 8, !tbaa !10
  %110 = getelementptr inbounds nuw %struct.mbedtls_psa_aead_operation_t, ptr %29, i32 0, i32 3
  %111 = load i8, ptr %110, align 1, !tbaa !16
  %112 = zext i8 %111 to i64
  %113 = sub i64 %109, %112
  %114 = load ptr, ptr %19, align 8, !tbaa !8
  %115 = load ptr, ptr %21, align 8, !tbaa !8
  %116 = load i64, ptr %22, align 8, !tbaa !10
  %117 = load ptr, ptr %30, align 8, !tbaa !8
  %118 = load ptr, ptr %23, align 8, !tbaa !8
  %119 = load ptr, ptr %25, align 8, !tbaa !8
  %120 = call i32 @mbedtls_chachapoly_auth_decrypt(ptr noundef %108, i64 noundef %113, ptr noundef %114, ptr noundef %115, i64 noundef %116, ptr noundef %117, ptr noundef %118, ptr noundef %119)
  %121 = call i32 @mbedtls_to_psa_error(i32 noundef %120)
  store i32 %121, ptr %28, align 4, !tbaa !12
  br label %123

122:                                              ; preds = %97
  store i32 -134, ptr %14, align 4
  store i32 1, ptr %31, align 4
  br label %149

123:                                              ; preds = %107
  br label %124

124:                                              ; preds = %123, %78
  br label %125

125:                                              ; preds = %124, %55
  %126 = load i32, ptr %28, align 4, !tbaa !12
  %127 = icmp eq i32 %126, 0
  br i1 %127, label %128, label %135

128:                                              ; preds = %125
  %129 = load i64, ptr %24, align 8, !tbaa !10
  %130 = getelementptr inbounds nuw %struct.mbedtls_psa_aead_operation_t, ptr %29, i32 0, i32 3
  %131 = load i8, ptr %130, align 1, !tbaa !16
  %132 = zext i8 %131 to i64
  %133 = sub i64 %129, %132
  %134 = load ptr, ptr %27, align 8, !tbaa !14
  store i64 %133, ptr %134, align 8, !tbaa !10
  br label %135

135:                                              ; preds = %128, %125
  br label %136

136:                                              ; preds = %135, %106, %50, %39
  %137 = call i32 @mbedtls_psa_aead_abort(ptr noundef %29)
  %138 = load i32, ptr %28, align 4, !tbaa !12
  %139 = icmp eq i32 %138, 0
  br i1 %139, label %140, label %147

140:                                              ; preds = %136
  %141 = load i64, ptr %24, align 8, !tbaa !10
  %142 = getelementptr inbounds nuw %struct.mbedtls_psa_aead_operation_t, ptr %29, i32 0, i32 3
  %143 = load i8, ptr %142, align 1, !tbaa !16
  %144 = zext i8 %143 to i64
  %145 = sub i64 %141, %144
  %146 = load ptr, ptr %27, align 8, !tbaa !14
  store i64 %145, ptr %146, align 8, !tbaa !10
  br label %147

147:                                              ; preds = %140, %136
  %148 = load i32, ptr %28, align 4, !tbaa !12
  store i32 %148, ptr %14, align 4
  store i32 1, ptr %31, align 4
  br label %149

149:                                              ; preds = %147, %122
  call void @llvm.lifetime.end.p0(i64 8, ptr %30) #5
  call void @llvm.lifetime.end.p0(i64 432, ptr %29) #5
  call void @llvm.lifetime.end.p0(i64 4, ptr %28) #5
  %150 = load i32, ptr %14, align 4
  ret i32 %150
}