; Function Attrs: nounwind uwtable
define hidden i32 @mbedtls_psa_aead_decrypt(ptr noundef readonly captures(none) %0, ptr noundef %1, i64 noundef %2, i32 noundef %3, ptr noundef %4, i64 noundef %5, ptr noundef %6, i64 noundef %7, ptr noundef %8, i64 noundef %9, ptr noundef %10, i64 noundef %11, ptr noundef writeonly captures(none) %12) local_unnamed_addr #0 {
  %14 = alloca %struct.mbedtls_psa_aead_operation_t, align 8
  call void @llvm.lifetime.start.p0(i64 432, ptr nonnull %14) #4
  call void @llvm.memset.p0.i64(ptr noundef nonnull align 8 dereferenceable(432) %14, i8 0, i64 432, i1 false)
  %15 = call fastcc i32 @psa_aead_setup(ptr noundef nonnull %14, ptr noundef %0, ptr noundef %1, i32 noundef %3)
  %.not = icmp eq i32 %15, 0
  br i1 %.not, label %16, label %psa_aead_unpadded_locate_tag.exit.thread

16:                                               ; preds = %13
  %17 = getelementptr inbounds nuw i8, ptr %14, i64 7
  %18 = load i8, ptr %17, align 1, !tbaa !3
  %19 = zext i8 %18 to i64
  %20 = icmp ult i64 %9, %19
  br i1 %20, label %psa_aead_unpadded_locate_tag.exit.thread, label %21

21:                                               ; preds = %16
  %22 = sub nuw i64 %9, %19
  %23 = icmp ugt i64 %22, %11
  br i1 %23, label %psa_aead_unpadded_locate_tag.exit.thread, label %24

24:                                               ; preds = %21
  %25 = getelementptr inbounds nuw i8, ptr %8, i64 %22
  %26 = load i32, ptr %14, align 8, !tbaa !9
  switch i32 %26, label %55 [
    i32 89129216, label %27
    i32 89129472, label %30
    i32 84935936, label %33
  ]

27:                                               ; preds = %24
  %28 = getelementptr inbounds nuw i8, ptr %14, i64 8
  %29 = call i32 @mbedtls_ccm_auth_decrypt(ptr noundef nonnull %28, i64 noundef %22, ptr noundef %4, i64 noundef %5, ptr noundef %6, i64 noundef %7, ptr noundef %8, ptr noundef %10, ptr noundef %25, i64 noundef %19) #4
  br label %37

30:                                               ; preds = %24
  %31 = getelementptr inbounds nuw i8, ptr %14, i64 8
  %32 = call i32 @mbedtls_gcm_auth_decrypt(ptr noundef nonnull %31, i64 noundef %22, ptr noundef %4, i64 noundef %5, ptr noundef %6, i64 noundef %7, ptr noundef %25, i64 noundef %19, ptr noundef %8, ptr noundef %10) #4
  br label %37

33:                                               ; preds = %24
  %.not41 = icmp eq i8 %18, 16
  br i1 %.not41, label %34, label %.thread

34:                                               ; preds = %33
  %35 = getelementptr inbounds nuw i8, ptr %14, i64 8
  %36 = call i32 @mbedtls_chachapoly_auth_decrypt(ptr noundef nonnull %35, i64 noundef %22, ptr noundef %4, ptr noundef %6, i64 noundef %7, ptr noundef %25, ptr noundef %8, ptr noundef %10) #4
  br label %37

37:                                               ; preds = %30, %34, %27
  %.sink = phi i32 [ %32, %30 ], [ %36, %34 ], [ %29, %27 ]
  %38 = call i32 @mbedtls_to_psa_error(i32 noundef %.sink) #4
  %39 = icmp eq i32 %38, 0
  br i1 %39, label %40, label %psa_aead_unpadded_locate_tag.exit.thread

40:                                               ; preds = %37
  %41 = load i8, ptr %17, align 1, !tbaa !3
  %42 = zext i8 %41 to i64
  %43 = sub i64 %9, %42
  store i64 %43, ptr %12, align 8, !tbaa !10
  br label %psa_aead_unpadded_locate_tag.exit.thread

psa_aead_unpadded_locate_tag.exit.thread:         ; preds = %21, %16, %37, %40, %13
  %.0.ph = phi i32 [ %38, %37 ], [ 0, %40 ], [ %15, %13 ], [ -138, %21 ], [ -135, %16 ]
  %.pr = load i32, ptr %14, align 8, !tbaa !9
  switch i32 %.pr, label %mbedtls_psa_aead_abort.exit [
    i32 89129216, label %44
    i32 89129472, label %46
    i32 84935936, label %.thread
  ]

44:                                               ; preds = %psa_aead_unpadded_locate_tag.exit.thread
  %45 = getelementptr inbounds nuw i8, ptr %14, i64 8
  call void @mbedtls_ccm_free(ptr noundef nonnull %45) #4
  br label %mbedtls_psa_aead_abort.exit

46:                                               ; preds = %psa_aead_unpadded_locate_tag.exit.thread
  %47 = getelementptr inbounds nuw i8, ptr %14, i64 8
  call void @mbedtls_gcm_free(ptr noundef nonnull %47) #4
  br label %mbedtls_psa_aead_abort.exit

.thread:                                          ; preds = %33, %psa_aead_unpadded_locate_tag.exit.thread
  %.049 = phi i32 [ %.0.ph, %psa_aead_unpadded_locate_tag.exit.thread ], [ -134, %33 ]
  %48 = getelementptr inbounds nuw i8, ptr %14, i64 8
  call void @mbedtls_chachapoly_free(ptr noundef nonnull %48) #4
  br label %mbedtls_psa_aead_abort.exit

mbedtls_psa_aead_abort.exit:                      ; preds = %psa_aead_unpadded_locate_tag.exit.thread, %44, %46, %.thread
  %.050 = phi i32 [ %.0.ph, %psa_aead_unpadded_locate_tag.exit.thread ], [ %.0.ph, %44 ], [ %.0.ph, %46 ], [ %.049, %.thread ]
  %49 = icmp eq i32 %.050, 0
  br i1 %49, label %50, label %55

50:                                               ; preds = %mbedtls_psa_aead_abort.exit
  %51 = getelementptr inbounds nuw i8, ptr %14, i64 7
  %52 = load i8, ptr %51, align 1, !tbaa !3
  %53 = zext i8 %52 to i64
  %54 = sub i64 %9, %53
  store i64 %54, ptr %12, align 8, !tbaa !10
  br label %55

55:                                               ; preds = %mbedtls_psa_aead_abort.exit, %50, %24
  %.036 = phi i32 [ -134, %24 ], [ 0, %50 ], [ %.050, %mbedtls_psa_aead_abort.exit ]
  call void @llvm.lifetime.end.p0(i64 432, ptr nonnull %14) #4
  ret i32 %.036
}